(dp0
S'buildDestination'
p1
S''
p2
sS'saveDestination'
p3
V/Users/kavya/Documents/Conversations for Final Project.tws
p4
sS'metadata'
p5
(dp6
sS'target'
p7
S'sugarcane'
p8
sS'storyPanel'
p9
(dp10
S'widgets'
p11
(lp12
(dp13
S'selected'
p14
I00
sS'pos'
p15
(lp16
I10
aI11
asS'passage'
p17
(itiddlywiki
Tiddler
p18
(dp20
S'text'
p21
VThis person, Liz, has been in an abusive relationship with her boyfriend for over three years.\u000a\u000a\u000a\u000aYou: Hello! What is your name?\u000a\u000aLiz: Liz.\u000a\u000aYou: (shakes hands)\u000a\u000aWhen Liz extends her hand to shake yours, you notice that there are bruises on her arm.\u000a\u000a[[What's wrong with your arm?]]
p22
sS'title'
p23
VCONVO 1
p24
sS'modified'
p25
ctime
struct_time
p26
((I2018
I7
I30
I14
I57
I16
I0
I211
I1
tp27
(dp28
tp29
Rp30
sS'tags'
p31
(lp32
sS'created'
p33
g26
((I2018
I7
I27
I13
I54
I13
I4
I208
I1
tp34
(dp35
tp36
Rp37
sbsa(dp38
g14
I00
sg15
(lp39
F262.0
aF11.0
asg17
(itiddlywiki
Tiddler
p40
(dp41
g21
VLiz: (nervous and scared) Nothing.\u000a\u000aYou: [[There're so many bruises running down your arm! What happened?]]
p42
sg23
VWhat's wrong with your arm?
p43
sg25
g26
((I2018
I7
I30
I14
I42
I8
I0
I211
I1
tp44
(dp45
tp46
Rp47
sg31
(lp48
sg33
g26
((I2018
I7
I30
I13
I33
I49
I0
I211
I1
tp49
(dp50
tp51
Rp52
sbsa(dp53
g14
I00
sg15
(lp54
F468.0
aF7.0
asg17
(itiddlywiki
Tiddler
p55
(dp56
g21
VLiz: It's none of your business!\u000a\u000aYou: Something must have happened. Don't worry, you can trust me.\u000a\u000aLiz: [[Okay.]]
p57
sg23
VThere're so many bruises running down your arm! What happened?
p58
sg25
g26
((I2018
I7
I30
I14
I42
I27
I0
I211
I1
tp59
(dp60
tp61
Rp62
sg31
(lp63
sg33
g26
((I2018
I7
I30
I13
I34
I34
I0
I211
I1
tp64
(dp65
tp66
Rp67
sbsa(dp68
g14
I00
sg15
(lp69
F662.0
aF7.0
asg17
(itiddlywiki
Tiddler
p70
(dp71
g21
VLiz: My boyfriend, Mark, physically abuses me. I want to break up with him, but I\u2019m terrified he\u2019ll hurt me even more. One time he slapped me so hard that my face was covered in bruises for days. My family asked me what happened, but I told them I had tripped. Mark had threatened to burn my house down if I told my family, so I had no choice!\u000a\u000aYou: \u000a[[I'm so sorry! I hope everything gets better.]]\u000a[[Is there any way I can help?]]
p72
sg23
VOkay.
p73
sg25
g26
((I2018
I7
I30
I14
I42
I41
I0
I211
I1
tp74
(dp75
tp76
Rp77
sg31
(lp78
sg33
g26
((I2018
I7
I30
I13
I35
I36
I0
I211
I1
tp79
(dp80
tp81
Rp82
sbsa(dp83
g14
I00
sg15
(lp84
F896.0
aF6.0
asg17
(itiddlywiki
Tiddler
p85
(dp86
g21
VLiz: Thank you!
p87
sg23
VI'm so sorry! I hope everything gets better.
p88
sg25
g26
((I2018
I7
I30
I14
I39
I43
I0
I211
I1
tp89
(dp90
tp91
Rp92
sg31
(lp93
sg33
g26
((I2018
I7
I30
I13
I36
I28
I0
I211
I1
tp94
(dp95
tp96
Rp97
sbsa(dp98
g14
I00
sg15
(lp99
F894.0
aF175.0
asg17
(itiddlywiki
Tiddler
p100
(dp101
g21
VLiz: I don't think so. I need to find a way to sort this out myself, but thank you so much for offering! It was so nice to share my feelings with someone. It feels like a burden has been taken off my shoulder. Thank you again.
p102
sg23
VIs there any way I can help?
p103
sg25
g26
((I2018
I7
I30
I14
I39
I37
I0
I211
I1
tp104
(dp105
tp106
Rp107
sg31
(lp108
sg33
g26
((I2018
I7
I30
I13
I36
I28
I0
I211
I1
tp109
(dp110
tp111
Rp112
sbsa(dp113
g14
I00
sg15
(lp114
F15.0
aF1205.0
asg17
(itiddlywiki
Tiddler
p115
(dp116
g21
VThis person is being pressured by her friends to take drugs.\u000a\u000a\u000a\u000a\u000aYou approach a 16-year-old boy, Jack, sitting by himself.\u000a\u000aJack: I told you that I don\u2019t want to take drugs!\u000a\u000aYou: [[Um, what?]]
p117
sg23
VCONVO 6
p118
sg25
g26
((I2018
I7
I30
I14
I52
I46
I0
I211
I1
tp119
(dp120
tp121
Rp122
sg31
(lp123
sg33
g26
((I2018
I7
I30
I13
I51
I4
I0
I211
I1
tp124
(dp125
tp126
Rp127
sbsa(dp128
g14
I00
sg15
(lp129
F237.0
aF1204.0
asg17
(itiddlywiki
Tiddler
p130
(dp131
g21
VJack (turns around): I\u2019m so sorry! I thought you were someone else.\u000a\u000aYou: [[Like who?]]\u000a
p132
sg23
VUm, what?
p133
sg25
g26
((I2018
I7
I30
I13
I53
I30
I0
I211
I1
tp134
(dp135
tp136
Rp137
sg31
(lp138
sg33
g26
((I2018
I7
I30
I13
I52
I7
I0
I211
I1
tp139
(dp140
tp141
Rp142
sbsa(dp143
g14
I00
sg15
(lp144
F436.0
aF1213.0
asg17
(itiddlywiki
Tiddler
p145
(dp146
g21
VJack: Don\u2019t worry about it.\u000a\u000aYou: Are you being pressured into taking drugs?\u000a\u000aJack: [[What\u2019s it to you?]]\u000a
p147
sg23
VLike who?
p148
sg25
g26
((I2018
I7
I30
I13
I53
I37
I0
I211
I1
tp149
(dp150
tp151
Rp152
sg31
(lp153
sg33
g26
((I2018
I7
I30
I13
I52
I26
I0
I211
I1
tp154
(dp155
tp156
Rp157
sbsa(dp158
g14
I00
sg15
(lp159
F669.0
aF1212.0
asg17
(itiddlywiki
Tiddler
p160
(dp161
g21
VYou: I just don\u2019t want you to be hurt.\u000a\u000aJack: It doesn\u2019t matter either way. If I don\u2019t take drugs, my friends will pressure me so much into doing it. If I do take drugs, I\u2019ll hurt my body. There\u2019s no point.\u000a\u000aYou: [[Then just ditch them.]]\u000a
p162
sg23
VWhat\u2019s it to you?
p163
sg25
g26
((I2018
I7
I30
I13
I53
I41
I0
I211
I1
tp164
(dp165
tp166
Rp167
sg31
(lp168
sg33
g26
((I2018
I7
I30
I13
I52
I34
I0
I211
I1
tp169
(dp170
tp171
Rp172
sbsa(dp173
g14
I00
sg15
(lp174
F894.0
aF1208.0
asg17
(itiddlywiki
Tiddler
p175
(dp176
g21
VJack: It\u2019s not that easy. All my friends take drugs and they\u2019re annoyed that I don\u2019t. The only way to get away from them is to move away, but I haven\u2019t told my parents.\u000a\u000aYou: Well, if you tell them, I\u2019m sure they will talk to their parents and tell them to stop. [[Your parents only want the best for you.]]\u000a
p177
sg23
VThen just ditch them.
p178
sg25
g26
((I2018
I7
I30
I13
I53
I45
I0
I211
I1
tp179
(dp180
tp181
Rp182
sg31
(lp183
sg33
g26
((I2018
I7
I30
I13
I52
I51
I0
I211
I1
tp184
(dp185
tp186
Rp187
sbsa(dp188
g14
I00
sg15
(lp189
F1093.0
aF1211.0
asg17
(itiddlywiki
Tiddler
p190
(dp191
g21
VJack: You\u2019re right. Thanks!\u000a\u000aYou: Anytime.
p192
sg23
VYour parents only want the best for you.
p193
sg25
g26
((I2018
I7
I30
I13
I54
I22
I0
I211
I1
tp194
(dp195
tp196
Rp197
sg31
(lp198
sg33
g26
((I2018
I7
I30
I13
I53
I1
I0
I211
I1
tp199
(dp200
tp201
Rp202
sbsa(dp203
g14
I00
sg15
(lp204
F22.0
aF538.0
asg17
(itiddlywiki
Tiddler
p205
(dp206
g21
VThis person, Alan, is being bullied at school for the way he dresses\u000a\u000aUser: Hi, nice to meet you!\u000a\u000aAlan:(turns away) What are you looking at?!\u000a\u000aUser: [[Hey, what\u2019s up? Something wrong?]]\u000a
p207
sg23
VCONVO 3
p208
sg25
g26
((I2018
I7
I30
I14
I53
I40
I0
I211
I1
tp209
(dp210
tp211
Rp212
sg31
(lp213
sg33
g26
((I2018
I7
I30
I14
I6
I59
I0
I211
I1
tp214
(dp215
tp216
Rp217
sbsa(dp218
g14
I00
sg15
(lp219
F227.0
aF537.0
asg17
(itiddlywiki
Tiddler
p220
(dp221
g21
VAlan: Nothing.\u000a\u000aYou: I like your shirt by the way, it\u2019s very unique.\u000a\u000aAlan: You don't know how much that means to me. People at my school bully me all the time for wearing weird clothers. You're, like, the first person who's ever complimented me.\u000a\u000aYou: Wow, that's sad. Your clothes are fine. Be happy with your own life and your own clothes. You're special in your own way.\u000a\u000aAlan: You've made my day. Thank you!\u000a\u000a\u000a\u000a\u000a\u000a
p222
sg23
VHey, what\u2019s up? Something wrong?
p223
sg25
g26
((I2018
I7
I30
I14
I12
I53
I0
I211
I1
tp224
(dp225
tp226
Rp227
sg31
(lp228
sg33
g26
((I2018
I7
I30
I14
I8
I6
I0
I211
I1
tp229
(dp230
tp231
Rp232
sbsa(dp233
g14
I00
sg15
(lp234
F24.0
aF347.0
asg17
(itiddlywiki
Tiddler
p235
(dp236
g21
VThis person, Joe, is a varsity athlete that struggles with his body image. \u000a\u000aYou: Hey!\u000a\u000aJoe: Wow! You\u2019re so fit!\u000a\u000aYou: [[Um, thanks?]]\u000a
p237
sg23
VCONVO 2
p238
sg25
g26
((I2018
I7
I30
I14
I57
I33
I0
I211
I1
tp239
(dp240
tp241
Rp242
sg31
(lp243
sg33
g26
((I2018
I7
I30
I14
I54
I28
I0
I211
I1
tp244
(dp245
tp246
Rp247
sbsa(dp248
g14
I00
sg15
(lp249
F241.0
aF347.0
asg17
(itiddlywiki
Tiddler
p250
(dp251
g21
VJoe: You must be an athlete! I play on the Irvington basketball team.\u000a\u000aYou: Really? [[That\u2019s so\u2026]]\u000a
p252
sg23
VUm, thanks?
p253
sg25
g26
((I2018
I7
I30
I14
I57
I45
I0
I211
I1
tp254
(dp255
tp256
Rp257
sg31
(lp258
sg33
g26
((I2018
I7
I30
I14
I55
I20
I0
I211
I1
tp259
(dp260
tp261
Rp262
sbsa(dp263
g14
I00
sg15
(lp264
F445.0
aF346.0
asg17
(itiddlywiki
Tiddler
p265
(dp266
g21
VJoe: ARE YOU SAYING THAT I DON\u2019T LOOK LIKE SOMEONE ON VARSITY!! YEAH I\u2019M SHORT AND SMALL BUT I CAN PLAY!\u000a\u000aYou: Whoa whoa whoa! I never said that! [[Relax dude.]]\u000a
p267
sg23
VThat\u2019s so\u2026
p268
sg25
g26
((I2018
I7
I30
I14
I57
I42
I0
I211
I1
tp269
(dp270
tp271
Rp272
sg31
(lp273
sg33
g26
((I2018
I7
I30
I14
I55
I47
I0
I211
I1
tp274
(dp275
tp276
Rp277
sbsa(dp278
g14
I00
sg15
(lp279
F635.0
aF346.0
asg17
(itiddlywiki
Tiddler
p280
(dp281
g21
VJoe: I\u2019M COMPLETELY FINE!\u000a\u000aYou: Nah man, I was going to say that\u2019s really cool. In fact, I think you resemble Steph Curry a bit. No one\u2019s doubting you.\u000a\u000aJoe: Oh. Well...thanks.
p282
sg23
VRelax dude.
p283
sg25
g26
((I2018
I7
I30
I14
I57
I54
I0
I211
I1
tp284
(dp285
tp286
Rp287
sg31
(lp288
sg33
g26
((I2018
I7
I30
I14
I56
I18
I0
I211
I1
tp289
(dp290
tp291
Rp292
sbsa(dp293
g14
I00
sg15
(lp294
I7
aI2014
asg17
(itiddlywiki
Tiddler
p295
(dp296
g21
VThis person is struggling at school and feels like a failure.\u000a\u000aYou: You okay?\u000a\u000aMPC: Why do you wanna know?\u000a\u000aYou: [[Because you seem down.]]\u000a
p297
sg23
VCONVO 10
p298
sg25
g26
((I2018
I7
I31
I10
I1
I28
I1
I212
I1
tp299
(dp300
tp301
Rp302
sg31
(lp303
sg33
g26
((I2018
I7
I31
I10
I1
I11
I1
I212
I1
tp304
(dp305
tp306
Rp307
sbsa(dp308
g14
I00
sg15
(lp309
F210.0
aF2015.0
asg17
(itiddlywiki
Tiddler
p310
(dp311
g21
VMPC: *sighs* I got an D+ on a big math test and my grade dropped 14 percent. I have a C- right now and I don\u2019t want to fail.\u000a\u000aYou: How long do you have to make it up?\u000a\u000aMPC: 2 months\u2026. [[That\u2019s not enough time!]]\u000a
p312
sg23
VBecause you seem down.
p313
sg25
g26
((I2018
I7
I31
I10
I1
I40
I1
I212
I1
tp314
(dp315
tp316
Rp317
sg31
(lp318
sg33
g26
((I2018
I7
I31
I10
I1
I30
I1
I212
I1
tp319
(dp320
tp321
Rp322
sbsa(dp323
g14
I00
sg15
(lp324
F424.0
aF2014.0
asg17
(itiddlywiki
Tiddler
p325
(dp326
g21
VYou: Did you study for the test?\u000a\u000aMPC: Well, a little, but I thought I knew everything but my teacher just dumped a load of difficult questions that we never did before on us!\u000a\u000aYou: How are your other classes?\u000a\u000aMPC: Hard. I took some other difficult subjects and I\u2019m failing in them. I don\u2019t know what I\u2019m supposed to do!\u000a\u000aYou: I can help you study for your next test if you want. [[I can tutor you, for free.]]\u000a\u000a
p327
sg23
VThat\u2019s not enough time!
p328
sg25
g26
((I2018
I7
I31
I10
I1
I58
I1
I212
I1
tp329
(dp330
tp331
Rp332
sg31
(lp333
sg33
g26
((I2018
I7
I31
I10
I1
I43
I1
I212
I1
tp334
(dp335
tp336
Rp337
sbsa(dp338
g14
I00
sg15
(lp339
F639.0
aF2018.0
asg17
(itiddlywiki
Tiddler
p340
(dp341
g21
VMPC: You would do that?\u000a\u000aYou: Of course!\u000a\u000aMPC: Thank you.\u000a
p342
sg23
VI can tutor you, for free.
p343
sg25
g26
((I2018
I7
I31
I10
I2
I9
I1
I212
I1
tp344
(dp345
tp346
Rp347
sg31
(lp348
sg33
g26
((I2018
I7
I31
I10
I2
I1
I1
I212
I1
tp349
(dp350
tp351
Rp352
sbsa(dp353
g14
I00
sg15
(lp354
I9
aI2402
asg17
(itiddlywiki
Tiddler
p355
(dp356
g21
VThis person, Tracy, is diagnosed with anorexia.\u000a\u000aTracy: Sometimes I just think about dying.\u000a\u000aYou: You\u2019re kidding, right?\u000a\u000aTracy: I just feel that I\u2019m so fat that I can\u2019t stand myself\u000a\u000aYou: What are you saying?!!! \u000a\u000a[[You're thin!]]\u000a\u000a[[You need to eat more.]]\u000a
p357
sg23
VCONVO 12
p358
sg25
g26
((I2018
I7
I31
I11
I48
I1
I1
I212
I1
tp359
(dp360
tp361
Rp362
sg31
(lp363
sg33
g26
((I2018
I7
I31
I11
I27
I10
I1
I212
I1
tp364
(dp365
tp366
Rp367
sbsa(dp368
g14
I00
sg15
(lp369
F208.0
aF2542.0
asg17
(itiddlywiki
Tiddler
p370
(dp371
g21
VTracy: No way! I'm already so fat! If I eat more, I'll gain more weight!\u000a\u000aYou: You barely have any weight in the first place...\u000a\u000a[[You need to promise me that you are going to eat more, otherwise you'll get seriously sick.]]
p372
sg23
VYou need to eat more.
p373
sg25
g26
((I2018
I7
I31
I11
I46
I55
I1
I212
I1
tp374
(dp375
tp376
Rp377
sg31
(lp378
sg33
g26
((I2018
I7
I31
I11
I27
I22
I1
I212
I1
tp379
(dp380
tp381
Rp382
sbsa(dp383
g14
I00
sg15
(lp384
F207.0
aF2695.0
asg17
(itiddlywiki
Tiddler
p385
(dp386
g21
VTracy: I'm not gonna promise you anything. I don't even know you.\u000a\u000aYou: You might not know me, but I've seen signs like this before. You're 100% anorexic.\u000a\u000a\u000a\u000aTracy goes to the hospital the next day and her doctor diagnoses her with anorexia.\u000a\u000a\u000a\u000aTracy: You were right.
p387
sg23
VYou need to promise me that you are going to eat more, otherwise you'll get seriously sick.
p388
sg25
g26
((I2018
I7
I31
I11
I46
I8
I1
I212
I1
tp389
(dp390
tp391
Rp392
sg31
(lp393
sg33
g26
((I2018
I7
I31
I11
I31
I44
I1
I212
I1
tp394
(dp395
tp396
Rp397
sbsa(dp398
g14
I00
sg15
(lp399
F424.0
aF2385.0
asg17
(itiddlywiki
Tiddler
p400
(dp401
g21
VTracy: Don\u2019t be stupid. If I was anorexic I would know. I\u2019m miles away from being anorexic, that\u2019s how fat I am.\u000a\u000aYou: Look at your arms, your bones are literally visible!\u000a\u000a\u000aShe looks at her arms.\u000a\u000a\u000aYou: I think you need to see a doctor.\u000a\u000aTracy: I told you, I'm not anorexic!\u000a\u000aYou:\u000a[[Search up a picture of an anorexic and compare it with a picture of you.]]\u000a\u000a[[I think you should ask your parents to take you to the doctor.]]\u000a\u000a\u000a\u000a\u000a
p402
sg23
VWait, you're anorexic!
p403
sg25
g26
((I2018
I7
I31
I11
I44
I10
I1
I212
I1
tp404
(dp405
tp406
Rp407
sg31
(lp408
sg33
g26
((I2018
I7
I31
I11
I32
I24
I1
I212
I1
tp409
(dp410
tp411
Rp412
sbsa(dp413
g14
I00
sg15
(lp414
F679.0
aF2381.0
asg17
(itiddlywiki
Tiddler
p415
(dp416
g21
VShe compares the two pictures.\u000a\u000aTracy: Wow...\u000a\u000aYou: You see? You are anorexic. You need to see a doctor.\u000a\u000aTracy: Yeah, maybe I should. Thank you for helping me.\u000a\u000aYou: You're welcome.
p417
sg23
VSearch up a picture of an anorexic and compare it with a picture of you.
p418
sg25
g26
((I2018
I7
I31
I11
I44
I19
I1
I212
I1
tp419
(dp420
tp421
Rp422
sg31
(lp423
sg33
g26
((I2018
I7
I31
I11
I40
I7
I1
I212
I1
tp424
(dp425
tp426
Rp427
sbsa(dp428
g14
I00
sg15
(lp429
F681.0
aF2541.0
asg17
(itiddlywiki
Tiddler
p430
(dp431
g21
VTracy: I'll ask them, just to get rid of you.\u000a\u000aYou: You'll be surprised.\u000a\u000a\u000aHours later, she goes to the hospital. Her doctor diagnoses her with anorexia.\u000a\u000a\u000a\u000aONE DAY LATER\u000a\u000a\u000a
p432
sg23
VI think you should ask your parents to take you to the doctor.
p433
sg25
g26
((I2018
I7
I31
I11
I50
I35
I1
I212
I1
tp434
(dp435
tp436
Rp437
sg31
(lp438
sg33
g26
((I2018
I7
I31
I11
I40
I7
I1
I212
I1
tp439
(dp440
tp441
Rp442
sbsa(dp443
g14
I00
sg15
(lp444
F220.0
aF2373.0
asg17
(itiddlywiki
Tiddler
p445
(dp446
g21
VTracy: Stop mocking me! I know I\u2019m fat, I don\u2019t need you to tell me!\u000a\u000aYou: \u000a[[Wait, you're anorexic!]]\u000a
p447
sg23
VYou're thin!
p448
sg25
g26
((I2018
I7
I31
I11
I48
I22
I1
I212
I1
tp449
(dp450
tp451
Rp452
sg31
(lp453
sg33
g26
((I2018
I7
I31
I11
I48
I20
I1
I212
I1
tp454
(dp455
tp456
Rp457
sbsasS'scale'
p458
I1
sS'snapping'
p459
I00
ss.